(lp0
(dp1
S'discountPrice'
p2
cdecimal
Decimal
p3
(S'119.88'
p4
tp5
Rp6
sS'display_name'
p7
VStandard
p8
sS'name'
p9
VPA Standard
p10
sS'plan_key'
p11
I1
sS'price'
p12
g3
(S'299.88'
p13
tp14
Rp15
sS'planId'
p16
Vpa-standard-y6z1
p17
sS'trialDays'
p18
I7
sS'billingCycleMonths'
p19
I12
sa(dp20
g2
g3
(S'155.88'
p21
tp22
Rp23
sg7
VPlus
p24
sg9
VPA Plus
p25
sg11
I1
sg12
g3
(S'359.88'
p26
tp27
Rp28
sg16
Vpa-plus-yzj1
p29
sg18
I7
sg19
I12
sa(dp30
g2
g3
(S'59.88'
p31
tp32
Rp33
sg7
VStandard
p34
sg9
VNP Standard
p35
sg11
I2
sg12
g3
(S'119.88'
p36
tp37
Rp38
sg16
Vnp-standard-ymwn
p39
sg18
I7
sg19
I12
sa(dp40
g2
g3
(S'119.88'
p41
tp42
Rp43
sg7
VPlus
p44
sg9
VNP Plus
p45
sg11
I2
sg12
g3
(S'359.88'
p46
tp47
Rp48
sg16
Vnp-plus-y36y
p49
sg18
I7
sg19
I12
sa(dp50
g2
g3
(S'59.88'
p51
tp52
Rp53
sg7
VStandard
p54
sg9
VRN Standard
p55
sg11
I3
sg12
g3
(S'119.88'
p56
tp57
Rp58
sg16
Vrn-standard-y8on
p59
sg18
I7
sg19
I12
sa(dp60
g2
g3
(S'119.88'
p61
tp62
Rp63
sg7
VPlus
p64
sg9
VRN Plus
p65
sg11
I3
sg12
g3
(S'359.88'
p66
tp67
Rp68
sg16
Vrn-plus-1oqn
p69
sg18
I7
sg19
I12
sa(dp70
g2
g3
(S'119.88'
p71
tp72
Rp73
sg7
VStandard
p74
sg9
VPathology Standard
p75
sg11
I4
sg12
g3
(S'299.88'
p76
tp77
Rp78
sg16
Vpathology-standard-1e4n
p79
sg18
I7
sg19
I12
sa(dp80
g2
g3
(S'155.88'
p81
tp82
Rp83
sg7
VPlus
p84
sg9
VPathology Plus
p85
sg11
I4
sg12
g3
(S'359.88'
p86
tp87
Rp88
sg16
Vpathology-plus-nrm1
p89
sg18
I7
sg19
I12
sa(dp90
g2
g3
(S'119.88'
p91
tp92
Rp93
sg7
VStandard
p94
sg9
VEM Standard
p95
sg11
I7
sg12
g3
(S'299.88'
p96
tp97
Rp98
sg16
Vem-standard-ydx1
p99
sg18
I7
sg19
I12
sa(dp100
g2
g3
(S'155.88'
p101
tp102
Rp103
sg7
VPlus
p104
sg9
VEM Plus
p105
sg11
I7
sg12
g3
(S'359.88'
p106
tp107
Rp108
sg16
Vem-plus-ylpn
p109
sg18
I7
sg19
I12
sa(dp110
g2
g3
(S'119.88'
p111
tp112
Rp113
sg7
VStandard
p114
sg9
VRadiology Standard
p115
sg11
I6
sg12
g3
(S'299.88'
p116
tp117
Rp118
sg16
Vradiology-standard-1jwy
p119
sg18
I7
sg19
I12
sa(dp120
g2
g3
(S'155.88'
p121
tp122
Rp123
sg7
VPlus
p124
sg9
VRadiology Plus
p125
sg11
I6
sg12
g3
(S'359.88'
p126
tp127
Rp128
sg16
Vradiology-plus-yv4y
p129
sg18
I7
sg19
I12
sa(dp130
g2
g3
(S'119.88'
p131
tp132
Rp133
sg7
VStandard
p134
sg9
VAnesthesiology Standard
p135
sg11
I5
sg12
g3
(S'299.88'
p136
tp137
Rp138
sg16
Vanesthesiology-standard-n721
p139
sg18
I7
sg19
I12
sa(dp140
g2
g3
(S'155.88'
p141
tp142
Rp143
sg7
VPlus
p144
sg9
VAnesthesiology Plus
p145
sg11
I5
sg12
g3
(S'359.88'
p146
tp147
Rp148
sg16
Vanesthesiology-plus-n0v1
p149
sg18
I7
sg19
I12
sa.